target datalayout = "e-m:e-p270:32:32-p271:32:32-p272:64:64-i64:64-i128:128-f80:128-n8:16:32:64-S128"
target triple = "x86_64-pc-linux-gnu"

%"class.OpenColorIO_v2_5dev::ExponentTransformImpl" = type { %"class.OpenColorIO_v2_5dev::ExponentTransform", %"class.OpenColorIO_v2_5dev::GammaOpData" }
%"class.OpenColorIO_v2_5dev::ExponentTransform" = type { %"class.OpenColorIO_v2_5dev::Transform" }
%"class.OpenColorIO_v2_5dev::Transform" = type { ptr }
%"class.OpenColorIO_v2_5dev::GammaOpData" = type { %"class.OpenColorIO_v2_5dev::OpData", i32, %"class.std::vector.8", %"class.std::vector.8", %"class.std::vector.8", %"class.std::vector.8" }
%"class.OpenColorIO_v2_5dev::OpData" = type { ptr, %"class.std::mutex", %"class.OpenColorIO_v2_5dev::FormatMetadataImpl" }
%"class.std::mutex" = type { %"class.std::__mutex_base" }
%"class.std::__mutex_base" = type { %union.pthread_mutex_t }
%union.pthread_mutex_t = type { %struct.__pthread_mutex_s }
%struct.__pthread_mutex_s = type { i32, i32, i32, i32, i32, i16, i16, %struct.__pthread_internal_list }
%struct.__pthread_internal_list = type { ptr, ptr }
%"class.OpenColorIO_v2_5dev::FormatMetadataImpl" = type { %"class.OpenColorIO_v2_5dev::FormatMetadata", %"class.std::__cxx11::basic_string", %"class.std::__cxx11::basic_string", %"class.std::vector", %"class.std::vector.3" }
%"class.OpenColorIO_v2_5dev::FormatMetadata" = type { ptr }
%"class.std::__cxx11::basic_string" = type { %"struct.std::__cxx11::basic_string<char>::_Alloc_hider", i64, %union.anon }
%"struct.std::__cxx11::basic_string<char>::_Alloc_hider" = type { ptr }
%union.anon = type { i64, [8 x i8] }
%"class.std::vector" = type { %"struct.std::_Vector_base" }
%"struct.std::_Vector_base" = type { %"struct.std::_Vector_base<std::pair<std::__cxx11::basic_string<char>, std::__cxx11::basic_string<char>>, std::allocator<std::pair<std::__cxx11::basic_string<char>, std::__cxx11::basic_string<char>>>>::_Vector_impl" }
%"struct.std::_Vector_base<std::pair<std::__cxx11::basic_string<char>, std::__cxx11::basic_string<char>>, std::allocator<std::pair<std::__cxx11::basic_string<char>, std::__cxx11::basic_string<char>>>>::_Vector_impl" = type { %"struct.std::_Vector_base<std::pair<std::__cxx11::basic_string<char>, std::__cxx11::basic_string<char>>, std::allocator<std::pair<std::__cxx11::basic_string<char>, std::__cxx11::basic_string<char>>>>::_Vector_impl_data" }
%"struct.std::_Vector_base<std::pair<std::__cxx11::basic_string<char>, std::__cxx11::basic_string<char>>, std::allocator<std::pair<std::__cxx11::basic_string<char>, std::__cxx11::basic_string<char>>>>::_Vector_impl_data" = type { ptr, ptr, ptr }
%"class.std::vector.3" = type { %"struct.std::_Vector_base.4" }
%"struct.std::_Vector_base.4" = type { %"struct.std::_Vector_base<OpenColorIO_v2_5dev::FormatMetadataImpl, std::allocator<OpenColorIO_v2_5dev::FormatMetadataImpl>>::_Vector_impl" }
%"struct.std::_Vector_base<OpenColorIO_v2_5dev::FormatMetadataImpl, std::allocator<OpenColorIO_v2_5dev::FormatMetadataImpl>>::_Vector_impl" = type { %"struct.std::_Vector_base<OpenColorIO_v2_5dev::FormatMetadataImpl, std::allocator<OpenColorIO_v2_5dev::FormatMetadataImpl>>::_Vector_impl_data" }
%"struct.std::_Vector_base<OpenColorIO_v2_5dev::FormatMetadataImpl, std::allocator<OpenColorIO_v2_5dev::FormatMetadataImpl>>::_Vector_impl_data" = type { ptr, ptr, ptr }
%"class.std::vector.8" = type { %"struct.std::_Vector_base.9" }
%"struct.std::_Vector_base.9" = type { %"struct.std::_Vector_base<double, std::allocator<double>>::_Vector_impl" }
%"struct.std::_Vector_base<double, std::allocator<double>>::_Vector_impl" = type { %"struct.std::_Vector_base<double, std::allocator<double>>::_Vector_impl_data" }
%"struct.std::_Vector_base<double, std::allocator<double>>::_Vector_impl_data" = type { ptr, ptr, ptr }

; Function Attrs: noinline noreturn nounwind uwtable
define linkonce_odr hidden void @__clang_call_terminate(ptr noundef %0) #11 comdat {
  %2 = call ptr @__cxa_begin_catch(ptr %0) #22
  call void @_ZSt9terminatev() #24
  unreachable
}

; Function Attrs: inlinehint mustprogress nounwind uwtable
define linkonce_odr hidden noundef nonnull align 8 dereferenceable(24) ptr @_ZNK19OpenColorIO_v2_5dev11GammaOpData14getAlphaParamsEv(ptr noundef nonnull align 8 dereferenceable(272) %0) #12 comdat align 2 {
  %2 = alloca ptr, align 8
  store ptr %0, ptr %2, align 8, !tbaa !26
  %3 = load ptr, ptr %2, align 8
  %4 = getelementptr inbounds nuw %"class.OpenColorIO_v2_5dev::GammaOpData", ptr %3, i32 0, i32 5
  ret ptr %4
}

; Function Attrs: inlinehint mustprogress nounwind uwtable
define linkonce_odr hidden noundef nonnull align 8 dereferenceable(24) ptr @_ZNK19OpenColorIO_v2_5dev11GammaOpData13getBlueParamsEv(ptr noundef nonnull align 8 dereferenceable(272) %0) #12 comdat align 2 {
  %2 = alloca ptr, align 8
  store ptr %0, ptr %2, align 8, !tbaa !26
  %3 = load ptr, ptr %2, align 8
  %4 = getelementptr inbounds nuw %"class.OpenColorIO_v2_5dev::GammaOpData", ptr %3, i32 0, i32 4
  ret ptr %4
}

; Function Attrs: inlinehint mustprogress nounwind uwtable
define linkonce_odr hidden noundef nonnull align 8 dereferenceable(24) ptr @_ZNK19OpenColorIO_v2_5dev11GammaOpData14getGreenParamsEv(ptr noundef nonnull align 8 dereferenceable(272) %0) #12 comdat align 2 {
  %2 = alloca ptr, align 8
  store ptr %0, ptr %2, align 8, !tbaa !26
  %3 = load ptr, ptr %2, align 8
  %4 = getelementptr inbounds nuw %"class.OpenColorIO_v2_5dev::GammaOpData", ptr %3, i32 0, i32 3
  ret ptr %4
}

; Function Attrs: mustprogress nounwind uwtable
define linkonce_odr hidden noundef nonnull align 8 dereferenceable(8) ptr @_ZNKSt6vectorIdSaIdEEixEm(ptr noundef nonnull align 8 dereferenceable(24) %0, i64 noundef %1) #4 comdat align 2 {
  %3 = alloca ptr, align 8
  %4 = alloca i64, align 8
  store ptr %0, ptr %3, align 8, !tbaa !69
  store i64 %1, ptr %4, align 8, !tbaa !71
  %5 = load ptr, ptr %3, align 8
  %6 = getelementptr inbounds nuw %"struct.std::_Vector_base.9", ptr %5, i32 0, i32 0
  %7 = getelementptr inbounds nuw %"struct.std::_Vector_base<double, std::allocator<double>>::_Vector_impl_data", ptr %6, i32 0, i32 0
  %8 = load ptr, ptr %7, align 8, !tbaa !72
  %9 = load i64, ptr %4, align 8, !tbaa !71
  %10 = getelementptr inbounds nuw double, ptr %8, i64 %9
  ret ptr %10
}

; Function Attrs: inlinehint mustprogress nounwind uwtable
define linkonce_odr hidden noundef nonnull align 8 dereferenceable(24) ptr @_ZNK19OpenColorIO_v2_5dev11GammaOpData12getRedParamsEv(ptr noundef nonnull align 8 dereferenceable(272) %0) #12 comdat align 2 {
  %2 = alloca ptr, align 8
  store ptr %0, ptr %2, align 8, !tbaa !26
  %3 = load ptr, ptr %2, align 8
  %4 = getelementptr inbounds nuw %"class.OpenColorIO_v2_5dev::GammaOpData", ptr %3, i32 0, i32 2
  ret ptr %4
}

; Function Attrs: mustprogress nounwind uwtable
define linkonce_odr hidden noundef nonnull align 8 dereferenceable(272) ptr @_ZNK19OpenColorIO_v2_5dev21ExponentTransformImpl4dataEv(ptr noundef nonnull align 8 dereferenceable(280) %0) #4 comdat align 2 {
  %2 = alloca ptr, align 8
  store ptr %0, ptr %2, align 8, !tbaa !3
  %3 = load ptr, ptr %2, align 8
  %4 = getelementptr inbounds nuw %"class.OpenColorIO_v2_5dev::ExponentTransformImpl", ptr %3, i32 0, i32 1
  ret ptr %4
}

; Function Attrs: mustprogress nounwind uwtable
define hidden void @_ZNK19OpenColorIO_v2_5dev21ExponentTransformImpl8getValueERA4_d(ptr noundef nonnull align 8 dereferenceable(280) %0, ptr noundef nonnull align 8 dereferenceable(32) %1) unnamed_addr #4 align 2 personality ptr @__gxx_personality_v0 {
  %3 = alloca ptr, align 8
  %4 = alloca ptr, align 8
  store ptr %0, ptr %3, align 8, !tbaa !3
  store ptr %1, ptr %4, align 8, !tbaa !66
  %5 = load ptr, ptr %3, align 8
  %6 = call noundef nonnull align 8 dereferenceable(272) ptr @_ZNK19OpenColorIO_v2_5dev21ExponentTransformImpl4dataEv(ptr noundef nonnull align 8 dereferenceable(280) %5) #22
  %7 = invoke noundef nonnull align 8 dereferenceable(24) ptr @_ZNK19OpenColorIO_v2_5dev11GammaOpData12getRedParamsEv(ptr noundef nonnull align 8 dereferenceable(272) %6)
          to label %8 unwind label %34

8:                                                ; preds = %2
  %9 = call noundef nonnull align 8 dereferenceable(8) ptr @_ZNKSt6vectorIdSaIdEEixEm(ptr noundef nonnull align 8 dereferenceable(24) %7, i64 noundef 0) #22
  %10 = load double, ptr %9, align 8, !tbaa !67
  %11 = load ptr, ptr %4, align 8, !tbaa !66
  %12 = getelementptr inbounds [4 x double], ptr %11, i64 0, i64 0
  store double %10, ptr %12, align 8, !tbaa !67
  %13 = call noundef nonnull align 8 dereferenceable(272) ptr @_ZNK19OpenColorIO_v2_5dev21ExponentTransformImpl4dataEv(ptr noundef nonnull align 8 dereferenceable(280) %5) #22
  %14 = invoke noundef nonnull align 8 dereferenceable(24) ptr @_ZNK19OpenColorIO_v2_5dev11GammaOpData14getGreenParamsEv(ptr noundef nonnull align 8 dereferenceable(272) %13)
          to label %15 unwind label %34

15:                                               ; preds = %8
  %16 = call noundef nonnull align 8 dereferenceable(8) ptr @_ZNKSt6vectorIdSaIdEEixEm(ptr noundef nonnull align 8 dereferenceable(24) %14, i64 noundef 0) #22
  %17 = load double, ptr %16, align 8, !tbaa !67
  %18 = load ptr, ptr %4, align 8, !tbaa !66
  %19 = getelementptr inbounds [4 x double], ptr %18, i64 0, i64 1
  store double %17, ptr %19, align 8, !tbaa !67
  %20 = call noundef nonnull align 8 dereferenceable(272) ptr @_ZNK19OpenColorIO_v2_5dev21ExponentTransformImpl4dataEv(ptr noundef nonnull align 8 dereferenceable(280) %5) #22
  %21 = invoke noundef nonnull align 8 dereferenceable(24) ptr @_ZNK19OpenColorIO_v2_5dev11GammaOpData13getBlueParamsEv(ptr noundef nonnull align 8 dereferenceable(272) %20)
          to label %22 unwind label %34

22:                                               ; preds = %15
  %23 = call noundef nonnull align 8 dereferenceable(8) ptr @_ZNKSt6vectorIdSaIdEEixEm(ptr noundef nonnull align 8 dereferenceable(24) %21, i64 noundef 0) #22
  %24 = load double, ptr %23, align 8, !tbaa !67
  %25 = load ptr, ptr %4, align 8, !tbaa !66
  %26 = getelementptr inbounds [4 x double], ptr %25, i64 0, i64 2
  store double %24, ptr %26, align 8, !tbaa !67
  %27 = call noundef nonnull align 8 dereferenceable(272) ptr @_ZNK19OpenColorIO_v2_5dev21ExponentTransformImpl4dataEv(ptr noundef nonnull align 8 dereferenceable(280) %5) #22
  %28 = invoke noundef nonnull align 8 dereferenceable(24) ptr @_ZNK19OpenColorIO_v2_5dev11GammaOpData14getAlphaParamsEv(ptr noundef nonnull align 8 dereferenceable(272) %27)
          to label %29 unwind label %34

29:                                               ; preds = %22
  %30 = call noundef nonnull align 8 dereferenceable(8) ptr @_ZNKSt6vectorIdSaIdEEixEm(ptr noundef nonnull align 8 dereferenceable(24) %28, i64 noundef 0) #22
  %31 = load double, ptr %30, align 8, !tbaa !67
  %32 = load ptr, ptr %4, align 8, !tbaa !66
  %33 = getelementptr inbounds [4 x double], ptr %32, i64 0, i64 3
  store double %31, ptr %33, align 8, !tbaa !67
  ret void

34:                                               ; preds = %22, %15, %8, %2
  %35 = landingpad { ptr, i32 }
          catch ptr null
  %36 = extractvalue { ptr, i32 } %35, 0
  call void @__clang_call_terminate(ptr %36) #24
  unreachable
}