; Function Attrs: mustprogress nofree norecurse nosync nounwind willreturn memory(read, argmem: readwrite, inaccessiblemem: none) uwtable
define hidden void @_ZNK19OpenColorIO_v2_5dev21ExponentTransformImpl8getValueERA4_d(ptr noundef nonnull readonly align 8 captures(none) dereferenceable(280) %0, ptr noundef nonnull writeonly align 8 captures(none) dereferenceable(32) initializes((0, 32)) %1) unnamed_addr #15 align 2 personality ptr @__gxx_personality_v0 {
  %3 = getelementptr inbounds nuw i8, ptr %0, i64 184
  %4 = load ptr, ptr %3, align 8, !tbaa !60
  %5 = load double, ptr %4, align 8, !tbaa !58
  store double %5, ptr %1, align 8, !tbaa !58
  %6 = getelementptr inbounds nuw i8, ptr %0, i64 208
  %7 = load ptr, ptr %6, align 8, !tbaa !60
  %8 = load double, ptr %7, align 8, !tbaa !58
  %9 = getelementptr inbounds nuw i8, ptr %1, i64 8
  store double %8, ptr %9, align 8, !tbaa !58
  %10 = getelementptr inbounds nuw i8, ptr %0, i64 232
  %11 = load ptr, ptr %10, align 8, !tbaa !60
  %12 = load double, ptr %11, align 8, !tbaa !58
  %13 = getelementptr inbounds nuw i8, ptr %1, i64 16
  store double %12, ptr %13, align 8, !tbaa !58
  %14 = getelementptr inbounds nuw i8, ptr %0, i64 256
  %15 = load ptr, ptr %14, align 8, !tbaa !60
  %16 = load double, ptr %15, align 8, !tbaa !58
  %17 = getelementptr inbounds nuw i8, ptr %1, i64 24
  store double %16, ptr %17, align 8, !tbaa !58
  ret void
}